target datalayout = "e-m:e-p270:32:32-p271:32:32-p272:64:64-i64:64-i128:128-f80:128-n8:16:32:64-S128"
target triple = "x86_64-pc-linux-gnu"

%struct.ssl_connection_st = type { %struct.ssl_st, ptr, i32, ptr, ptr, ptr, i32, ptr, i32, i32, i32, i32, %struct.OSSL_TIME, %struct.OSSL_TIME, %struct.ossl_statem_st, i32, ptr, ptr, i64, i64, i64, %struct.ossl_quic_tls_callbacks_st, ptr, ptr, %struct.anon, ptr, ptr, ptr, i32, ptr, %struct.ssl_dane_st, ptr, ptr, ptr, ptr, i32, [64 x i8], [64 x i8], [64 x i8], [64 x i8], [64 x i8], [64 x i8], [64 x i8], [64 x i8], [64 x i8], [64 x i8], [64 x i8], [64 x i8], ptr, [64 x i8], i64, i32, i64, [32 x i8], ptr, ptr, ptr, i64, ptr, [32 x i8], i64, i32, ptr, ptr, i32, i32, ptr, ptr, ptr, ptr, ptr, i64, ptr, ptr, i64, i32, i32, i32, i64, i32, i32, i64, i64, i64, %struct.anon.1, ptr, i32, ptr, ptr, ptr, i32, ptr, ptr, ptr, i32, i32, i32, i32, ptr, i64, i32, ptr, %struct.srp_ctx_st, ptr, %struct.record_layer_st, ptr, ptr, ptr, ptr, i64, i32, i32, i32, i64, i64, i64, ptr, ptr, ptr, ptr, ptr, i64, ptr, i64, ptr, i64 }
%struct.ssl_st = type { i32, ptr, ptr, ptr, %struct.CRYPTO_REF_COUNT, ptr, %struct.crypto_ex_data_st }
%struct.CRYPTO_REF_COUNT = type { i32 }
%struct.crypto_ex_data_st = type { ptr, ptr }
%struct.OSSL_TIME = type { i64 }
%struct.ossl_statem_st = type { i32, i32, i32, i32, i32, i32, i32, i32, i32, i32, i32, i32, i32, ptr, ptr, ptr, i8 }
%struct.ossl_quic_tls_callbacks_st = type { ptr, ptr, ptr, ptr, ptr, ptr }
%struct.anon = type { i64, [32 x i8], [32 x i8], ptr, ptr, i32, i32, i32, i32, [2 x i8], i32, i32, i32, i32, %struct.anon.0, [64 x i8], i64, [64 x i8], i64, i32, i32, ptr, i64, ptr, i64, i32, i8, i8, i16, ptr, i16 }
%struct.anon.0 = type { [128 x i8], i64, [128 x i8], i64, i64, i32, ptr, ptr, [4 x ptr], [4 x i16], i64, i32, ptr, i64, ptr, i64, ptr, ptr, ptr, i32, i64, ptr, i32, ptr, i64, ptr, i64, ptr, i64, ptr, ptr, ptr, ptr, i64, i64, ptr, ptr, i32, i32, i32, i32 }
%struct.ssl_dane_st = type { ptr, ptr, ptr, ptr, ptr, i32, i32, i32, i64 }
%struct.anon.1 = type { [29 x i8], ptr, ptr, ptr, i32, ptr, i16, i32, %struct.anon.2, i32, i32, i64, ptr, i64, ptr, i64, ptr, i64, ptr, i64, ptr, i64, ptr, ptr, ptr, ptr, ptr, ptr, ptr, i64, ptr, i64, i32, i32, i32, i32, ptr, i64, i32, i8, i32, [4 x i32], i32, i8, i8, i8, i8 }
%struct.anon.2 = type { ptr, ptr, ptr, i64 }
%struct.srp_ctx_st = type { ptr, ptr, ptr, ptr, ptr, ptr, ptr, ptr, ptr, ptr, ptr, ptr, ptr, ptr, i32, i64 }
%struct.record_layer_st = type { ptr, ptr, ptr, ptr, ptr, ptr, ptr, ptr, i64, i32, i64, [4 x i8], i64, i64, i8, ptr, i32, ptr, ptr, ptr, i64, i64, i64, i64, [32 x %struct.tls_record_st] }
%struct.tls_record_st = type { ptr, i32, i8, ptr, ptr, i64, i64, i16, [8 x i8] }
%struct.ssl_session_st = type { i32, i64, [64 x i8], [512 x i8], i64, [32 x i8], i64, [32 x i8], ptr, ptr, i32, ptr, ptr, ptr, i64, %struct.OSSL_TIME, %struct.OSSL_TIME, %struct.OSSL_TIME, i32, ptr, i64, i32, %struct.crypto_ex_data_st, %struct.anon.3, ptr, ptr, i64, i32, ptr, ptr, ptr, %struct.CRYPTO_REF_COUNT }
%struct.anon.3 = type { ptr, ptr, i64, i64, i32, i32, ptr, i64, i8 }
%struct.ossl_param_st = type { ptr, i32, ptr, i64, i64 }

@.str = private unnamed_addr constant [24 x i8] c"../openssl/ssl/s3_enc.c\00", align 1
@.str.1 = private unnamed_addr constant [8 x i8] c"ssl3-ms\00", align 1
@__func__.ssl3_final_finish_mac = private unnamed_addr constant [22 x i8] c"ssl3_final_finish_mac\00", align 1

; Function Attrs: nounwind uwtable
define void @ssl3_digest_master_key_set_params(ptr noundef %0, ptr noundef %1) #0 {
  %3 = alloca ptr, align 8
  %4 = alloca ptr, align 8
  %5 = alloca i32, align 4
  %6 = alloca %struct.ossl_param_st, align 8
  %7 = alloca %struct.ossl_param_st, align 8
  store ptr %0, ptr %3, align 8, !tbaa !110
  store ptr %1, ptr %4, align 8, !tbaa !111
  call void @llvm.lifetime.start.p0(i64 4, ptr %5) #7
  store i32 0, ptr %5, align 4, !tbaa !8
  %8 = load ptr, ptr %4, align 8, !tbaa !111
  %9 = load i32, ptr %5, align 4, !tbaa !8
  %10 = add nsw i32 %9, 1
  store i32 %10, ptr %5, align 4, !tbaa !8
  %11 = sext i32 %9 to i64
  %12 = getelementptr inbounds %struct.ossl_param_st, ptr %8, i64 %11
  call void @llvm.lifetime.start.p0(i64 40, ptr %6) #7
  %13 = load ptr, ptr %3, align 8, !tbaa !110
  %14 = getelementptr inbounds nuw %struct.ssl_session_st, ptr %13, i32 0, i32 3
  %15 = getelementptr inbounds [512 x i8], ptr %14, i64 0, i64 0
  %16 = load ptr, ptr %3, align 8, !tbaa !110
  %17 = getelementptr inbounds nuw %struct.ssl_session_st, ptr %16, i32 0, i32 1
  %18 = load i64, ptr %17, align 8, !tbaa !101
  call void @OSSL_PARAM_construct_octet_string(ptr dead_on_unwind writable sret(%struct.ossl_param_st) align 8 %6, ptr noundef @.str.1, ptr noundef %15, i64 noundef %18)
  call void @llvm.memcpy.p0.p0.i64(ptr align 8 %12, ptr align 8 %6, i64 40, i1 false), !tbaa.struct !113
  call void @llvm.lifetime.end.p0(i64 40, ptr %6) #7
  %19 = load ptr, ptr %4, align 8, !tbaa !111
  %20 = load i32, ptr %5, align 4, !tbaa !8
  %21 = add nsw i32 %20, 1
  store i32 %21, ptr %5, align 4, !tbaa !8
  %22 = sext i32 %20 to i64
  %23 = getelementptr inbounds %struct.ossl_param_st, ptr %19, i64 %22
  call void @llvm.lifetime.start.p0(i64 40, ptr %7) #7
  call void @OSSL_PARAM_construct_end(ptr dead_on_unwind writable sret(%struct.ossl_param_st) align 8 %7)
  call void @llvm.memcpy.p0.p0.i64(ptr align 8 %23, ptr align 8 %7, i64 40, i1 false), !tbaa.struct !113
  call void @llvm.lifetime.end.p0(i64 40, ptr %7) #7
  call void @llvm.lifetime.end.p0(i64 4, ptr %5) #7
  ret void
}

; Function Attrs: nounwind uwtable
define i64 @ssl3_final_finish_mac(ptr noundef %0, ptr noundef %1, i64 noundef %2, ptr noundef %3) #0 {
  %5 = alloca i64, align 8
  %6 = alloca ptr, align 8
  %7 = alloca ptr, align 8
  %8 = alloca i64, align 8
  %9 = alloca ptr, align 8
  %10 = alloca i32, align 4
  %11 = alloca ptr, align 8
  %12 = alloca i32, align 4
  %13 = alloca [3 x %struct.ossl_param_st], align 16
  store ptr %0, ptr %6, align 8, !tbaa !3
  store ptr %1, ptr %7, align 8, !tbaa !77
  store i64 %2, ptr %8, align 8, !tbaa !78
  store ptr %3, ptr %9, align 8, !tbaa !77
  call void @llvm.lifetime.start.p0(i64 4, ptr %10) #7
  call void @llvm.lifetime.start.p0(i64 8, ptr %11) #7
  store ptr null, ptr %11, align 8, !tbaa !100
  %14 = load ptr, ptr %6, align 8, !tbaa !3
  %15 = call i32 @ssl3_digest_cached_records(ptr noundef %14, i32 noundef 0)
  %16 = icmp ne i32 %15, 0
  br i1 %16, label %18, label %17

17:                                               ; preds = %4
  store i64 0, ptr %5, align 8
  store i32 1, ptr %12, align 4
  br label %82

18:                                               ; preds = %4
  %19 = load ptr, ptr %6, align 8, !tbaa !3
  %20 = getelementptr inbounds nuw %struct.ssl_connection_st, ptr %19, i32 0, i32 24
  %21 = getelementptr inbounds nuw %struct.anon, ptr %20, i32 0, i32 4
  %22 = load ptr, ptr %21, align 8, !tbaa !108
  %23 = call ptr @EVP_MD_CTX_get0_md(ptr noundef %22)
  %24 = call i32 @EVP_MD_get_type(ptr noundef %23)
  %25 = icmp ne i32 %24, 114
  br i1 %25, label %26, label %28

26:                                               ; preds = %18
  call void @ERR_new()
  call void @ERR_set_debug(ptr noundef @.str, i32 noundef 334, ptr noundef @__func__.ssl3_final_finish_mac)
  %27 = load ptr, ptr %6, align 8, !tbaa !3
  call void (ptr, i32, i32, ptr, ...) @ossl_statem_fatal(ptr noundef %27, i32 noundef 80, i32 noundef 324, ptr noundef null)
  store i64 0, ptr %5, align 8
  store i32 1, ptr %12, align 4
  br label %82

28:                                               ; preds = %18
  %29 = call ptr @EVP_MD_CTX_new()
  store ptr %29, ptr %11, align 8, !tbaa !100
  %30 = load ptr, ptr %11, align 8, !tbaa !100
  %31 = icmp eq ptr %30, null
  br i1 %31, label %32, label %34

32:                                               ; preds = %28
  call void @ERR_new()
  call void @ERR_set_debug(ptr noundef @.str, i32 noundef 340, ptr noundef @__func__.ssl3_final_finish_mac)
  %33 = load ptr, ptr %6, align 8, !tbaa !3
  call void (ptr, i32, i32, ptr, ...) @ossl_statem_fatal(ptr noundef %33, i32 noundef 80, i32 noundef 524294, ptr noundef null)
  store i64 0, ptr %5, align 8
  store i32 1, ptr %12, align 4
  br label %82

34:                                               ; preds = %28
  %35 = load ptr, ptr %11, align 8, !tbaa !100
  %36 = load ptr, ptr %6, align 8, !tbaa !3
  %37 = getelementptr inbounds nuw %struct.ssl_connection_st, ptr %36, i32 0, i32 24
  %38 = getelementptr inbounds nuw %struct.anon, ptr %37, i32 0, i32 4
  %39 = load ptr, ptr %38, align 8, !tbaa !108
  %40 = call i32 @EVP_MD_CTX_copy_ex(ptr noundef %35, ptr noundef %39)
  %41 = icmp ne i32 %40, 0
  br i1 %41, label %44, label %42

42:                                               ; preds = %34
  call void @ERR_new()
  call void @ERR_set_debug(ptr noundef @.str, i32 noundef 344, ptr noundef @__func__.ssl3_final_finish_mac)
  %43 = load ptr, ptr %6, align 8, !tbaa !3
  call void (ptr, i32, i32, ptr, ...) @ossl_statem_fatal(ptr noundef %43, i32 noundef 80, i32 noundef 786691, ptr noundef null)
  store i32 0, ptr %10, align 4, !tbaa !8
  br label %78

44:                                               ; preds = %34
  %45 = load ptr, ptr %11, align 8, !tbaa !100
  %46 = call i32 @EVP_MD_CTX_get_size_ex(ptr noundef %45)
  store i32 %46, ptr %10, align 4, !tbaa !8
  %47 = load i32, ptr %10, align 4, !tbaa !8
  %48 = icmp slt i32 %47, 0
  br i1 %48, label %49, label %51

49:                                               ; preds = %44
  call void @ERR_new()
  call void @ERR_set_debug(ptr noundef @.str, i32 noundef 351, ptr noundef @__func__.ssl3_final_finish_mac)
  %50 = load ptr, ptr %6, align 8, !tbaa !3
  call void (ptr, i32, i32, ptr, ...) @ossl_statem_fatal(ptr noundef %50, i32 noundef 80, i32 noundef 786691, ptr noundef null)
  store i32 0, ptr %10, align 4, !tbaa !8
  br label %78

51:                                               ; preds = %44
  %52 = load ptr, ptr %7, align 8, !tbaa !77
  %53 = icmp ne ptr %52, null
  br i1 %53, label %54, label %77

54:                                               ; preds = %51
  call void @llvm.lifetime.start.p0(i64 120, ptr %13) #7
  %55 = load ptr, ptr %6, align 8, !tbaa !3
  %56 = getelementptr inbounds nuw %struct.ssl_connection_st, ptr %55, i32 0, i32 54
  %57 = load ptr, ptr %56, align 8, !tbaa !81
  %58 = getelementptr inbounds [3 x %struct.ossl_param_st], ptr %13, i64 0, i64 0
  call void @ssl3_digest_master_key_set_params(ptr noundef %57, ptr noundef %58)
  %59 = load ptr, ptr %11, align 8, !tbaa !100
  %60 = load ptr, ptr %7, align 8, !tbaa !77
  %61 = load i64, ptr %8, align 8, !tbaa !78
  %62 = call i32 @EVP_DigestUpdate(ptr noundef %59, ptr noundef %60, i64 noundef %61)
  %63 = icmp sle i32 %62, 0
  br i1 %63, label %74, label %64

64:                                               ; preds = %54
  %65 = load ptr, ptr %11, align 8, !tbaa !100
  %66 = getelementptr inbounds [3 x %struct.ossl_param_st], ptr %13, i64 0, i64 0
  %67 = call i32 @EVP_MD_CTX_set_params(ptr noundef %65, ptr noundef %66)
  %68 = icmp sle i32 %67, 0
  br i1 %68, label %74, label %69

69:                                               ; preds = %64
  %70 = load ptr, ptr %11, align 8, !tbaa !100
  %71 = load ptr, ptr %9, align 8, !tbaa !77
  %72 = call i32 @EVP_DigestFinal_ex(ptr noundef %70, ptr noundef %71, ptr noundef null)
  %73 = icmp sle i32 %72, 0
  br i1 %73, label %74, label %76

74:                                               ; preds = %69, %64, %54
  call void @ERR_new()
  call void @ERR_set_debug(ptr noundef @.str, i32 noundef 364, ptr noundef @__func__.ssl3_final_finish_mac)
  %75 = load ptr, ptr %6, align 8, !tbaa !3
  call void (ptr, i32, i32, ptr, ...) @ossl_statem_fatal(ptr noundef %75, i32 noundef 80, i32 noundef 786691, ptr noundef null)
  store i32 0, ptr %10, align 4, !tbaa !8
  br label %76

76:                                               ; preds = %74, %69
  call void @llvm.lifetime.end.p0(i64 120, ptr %13) #7
  br label %77

77:                                               ; preds = %76, %51
  br label %78

78:                                               ; preds = %77, %49, %42
  %79 = load ptr, ptr %11, align 8, !tbaa !100
  call void @EVP_MD_CTX_free(ptr noundef %79)
  %80 = load i32, ptr %10, align 4, !tbaa !8
  %81 = sext i32 %80 to i64
  store i64 %81, ptr %5, align 8
  store i32 1, ptr %12, align 4
  br label %82

82:                                               ; preds = %78, %32, %26, %17
  call void @llvm.lifetime.end.p0(i64 8, ptr %11) #7
  call void @llvm.lifetime.end.p0(i64 4, ptr %10) #7
  %83 = load i64, ptr %5, align 8
  ret i64 %83
}