; Function Attrs: nounwind uwtable
define range(i64 0, 2147483648) i64 @ssl3_final_finish_mac(ptr noundef %0, ptr noundef %1, i64 noundef %2, ptr noundef %3) local_unnamed_addr #0 {
  %5 = alloca %struct.ossl_param_st, align 8
  %6 = alloca [3 x %struct.ossl_param_st], align 16
  %7 = tail call i32 @ssl3_digest_cached_records(ptr noundef %0, i32 noundef 0)
  %.not = icmp eq i32 %7, 0
  br i1 %.not, label %46, label %8

8:                                                ; preds = %4
  %9 = getelementptr inbounds nuw i8, ptr %0, i64 432
  %10 = load ptr, ptr %9, align 8, !tbaa !101
  %11 = tail call ptr @EVP_MD_CTX_get0_md(ptr noundef %10) #8
  %12 = tail call i32 @EVP_MD_get_type(ptr noundef %11) #8
  %.not26 = icmp eq i32 %12, 114
  br i1 %.not26, label %14, label %13

13:                                               ; preds = %8
  tail call void @ERR_new() #8
  tail call void @ERR_set_debug(ptr noundef nonnull @.str, i32 noundef 334, ptr noundef nonnull @__func__.ssl3_final_finish_mac) #8
  tail call void (ptr, i32, i32, ptr, ...) @ossl_statem_fatal(ptr noundef nonnull %0, i32 noundef 80, i32 noundef 324, ptr noundef null) #8
  br label %46

14:                                               ; preds = %8
  %15 = tail call ptr @EVP_MD_CTX_new() #8
  %16 = icmp eq ptr %15, null
  br i1 %16, label %17, label %18

17:                                               ; preds = %14
  tail call void @ERR_new() #8
  tail call void @ERR_set_debug(ptr noundef nonnull @.str, i32 noundef 340, ptr noundef nonnull @__func__.ssl3_final_finish_mac) #8
  tail call void (ptr, i32, i32, ptr, ...) @ossl_statem_fatal(ptr noundef nonnull %0, i32 noundef 80, i32 noundef 524294, ptr noundef null) #8
  br label %46

18:                                               ; preds = %14
  %19 = load ptr, ptr %9, align 8, !tbaa !101
  %20 = tail call i32 @EVP_MD_CTX_copy_ex(ptr noundef nonnull %15, ptr noundef %19) #8
  %.not27 = icmp eq i32 %20, 0
  br i1 %.not27, label %21, label %22

21:                                               ; preds = %18
  tail call void @ERR_new() #8
  tail call void @ERR_set_debug(ptr noundef nonnull @.str, i32 noundef 344, ptr noundef nonnull @__func__.ssl3_final_finish_mac) #8
  tail call void (ptr, i32, i32, ptr, ...) @ossl_statem_fatal(ptr noundef nonnull %0, i32 noundef 80, i32 noundef 786691, ptr noundef null) #8
  br label %44

22:                                               ; preds = %18
  %23 = tail call i32 @EVP_MD_CTX_get_size_ex(ptr noundef nonnull %15) #8
  %24 = icmp slt i32 %23, 0
  br i1 %24, label %25, label %26

25:                                               ; preds = %22
  tail call void @ERR_new() #8
  tail call void @ERR_set_debug(ptr noundef nonnull @.str, i32 noundef 351, ptr noundef nonnull @__func__.ssl3_final_finish_mac) #8
  tail call void (ptr, i32, i32, ptr, ...) @ossl_statem_fatal(ptr noundef nonnull %0, i32 noundef 80, i32 noundef 786691, ptr noundef null) #8
  br label %44

26:                                               ; preds = %22
  %.not28 = icmp eq ptr %1, null
  br i1 %.not28, label %44, label %27

27:                                               ; preds = %26
  call void @llvm.lifetime.start.p0(i64 120, ptr nonnull %6) #8
  %28 = getelementptr inbounds nuw i8, ptr %0, i64 2304
  %29 = load ptr, ptr %28, align 8, !tbaa !75
  %30 = getelementptr inbounds nuw i8, ptr %29, i64 80
  %31 = getelementptr inbounds nuw i8, ptr %29, i64 8
  %32 = load i64, ptr %31, align 8, !tbaa !95
  call void @OSSL_PARAM_construct_octet_string(ptr dead_on_unwind nonnull writable sret(%struct.ossl_param_st) align 8 %6, ptr noundef nonnull @.str.1, ptr noundef nonnull %30, i64 noundef %32) #8
  %33 = getelementptr inbounds nuw i8, ptr %6, i64 40
  call void @llvm.lifetime.start.p0(i64 40, ptr nonnull %5) #8
  call void @OSSL_PARAM_construct_end(ptr dead_on_unwind nonnull writable sret(%struct.ossl_param_st) align 8 %5) #8
  call void @llvm.memcpy.p0.p0.i64(ptr noundef nonnull align 8 dereferenceable(40) %33, ptr noundef nonnull align 8 dereferenceable(40) %5, i64 40, i1 false), !tbaa.struct !103
  call void @llvm.lifetime.end.p0(i64 40, ptr nonnull %5) #8
  %34 = call i32 @EVP_DigestUpdate(ptr noundef nonnull %15, ptr noundef nonnull %1, i64 noundef %2) #8
  %35 = icmp slt i32 %34, 1
  br i1 %35, label %42, label %36

36:                                               ; preds = %27
  %37 = call i32 @EVP_MD_CTX_set_params(ptr noundef nonnull %15, ptr noundef nonnull %6) #8
  %38 = icmp slt i32 %37, 1
  br i1 %38, label %42, label %39

39:                                               ; preds = %36
  %40 = call i32 @EVP_DigestFinal_ex(ptr noundef nonnull %15, ptr noundef %3, ptr noundef null) #8
  %41 = icmp slt i32 %40, 1
  br i1 %41, label %42, label %43

42:                                               ; preds = %39, %36, %27
  call void @ERR_new() #8
  call void @ERR_set_debug(ptr noundef nonnull @.str, i32 noundef 364, ptr noundef nonnull @__func__.ssl3_final_finish_mac) #8
  call void (ptr, i32, i32, ptr, ...) @ossl_statem_fatal(ptr noundef nonnull %0, i32 noundef 80, i32 noundef 786691, ptr noundef null) #8
  br label %43

43:                                               ; preds = %42, %39
  %.1 = phi i32 [ 0, %42 ], [ %23, %39 ]
  call void @llvm.lifetime.end.p0(i64 120, ptr nonnull %6) #8
  br label %44

44:                                               ; preds = %26, %43, %25, %21
  %.0 = phi i32 [ 0, %25 ], [ %.1, %43 ], [ %23, %26 ], [ 0, %21 ]
  call void @EVP_MD_CTX_free(ptr noundef nonnull %15) #8
  %45 = zext nneg i32 %.0 to i64
  br label %46

46:                                               ; preds = %4, %44, %17, %13
  %.022 = phi i64 [ 0, %13 ], [ 0, %17 ], [ %45, %44 ], [ 0, %4 ]
  ret i64 %.022
}